; ModuleID = '15/1322.c'
source_filename = "15/1322.c"
target datalayout = "e-m:e-p270:32:32-p271:32:32-p272:64:64-i64:64-f80:128-n8:16:32:64-S128"
target triple = "x86_64-pc-linux-gnu"

@.str = private unnamed_addr constant [3 x i8] c"%d\00", align 1
@.str.1 = private unnamed_addr constant [4 x i8] c"%d\0A\00", align 1

; Function Attrs: noinline nounwind uwtable
define dso_local i32 @main() #0 {
  %1 = alloca i32, align 4
  %2 = alloca i32, align 4
  %3 = alloca i32, align 4
  %4 = alloca i32, align 4
  %5 = alloca i32, align 4
  %6 = alloca i32, align 4
  %7 = alloca i32, align 4
  %8 = alloca i32, align 4
  %9 = alloca i32, align 4
  %10 = alloca i32**, align 8
  store i32 0, i32* %1, align 4
  %11 = call i32 (i8*, ...) @__isoc99_scanf(i8* getelementptr inbounds ([3 x i8], [3 x i8]* @.str, i64 0, i64 0), i32* %2)
  %12 = load i32, i32* %2, align 4
  %13 = sext i32 %12 to i64
  %14 = mul i64 8, %13
  %15 = call noalias i8* @malloc(i64 %14) #3
  %16 = bitcast i8* %15 to i32**
  store i32** %16, i32*** %10, align 8
  store i32 0, i32* %3, align 4
  br label %17

17:                                               ; preds = %31, %0
  %18 = load i32, i32* %3, align 4
  %19 = load i32, i32* %2, align 4
  %20 = icmp slt i32 %18, %19
  br i1 %20, label %21, label %34

21:                                               ; preds = %17
  %22 = load i32, i32* %2, align 4
  %23 = sext i32 %22 to i64
  %24 = mul i64 4, %23
  %25 = call noalias i8* @malloc(i64 %24) #3
  %26 = bitcast i8* %25 to i32*
  %27 = load i32**, i32*** %10, align 8
  %28 = load i32, i32* %3, align 4
  %29 = sext i32 %28 to i64
  %30 = getelementptr inbounds i32*, i32** %27, i64 %29
  store i32* %26, i32** %30, align 8
  br label %31

31:                                               ; preds = %21
  %32 = load i32, i32* %3, align 4
  %33 = add nsw i32 %32, 1
  store i32 %33, i32* %3, align 4
  br label %17

34:                                               ; preds = %17
  store i32 0, i32* %3, align 4
  br label %35

35:                                               ; preds = %58, %34
  %36 = load i32, i32* %3, align 4
  %37 = load i32, i32* %2, align 4
  %38 = icmp slt i32 %36, %37
  br i1 %38, label %39, label %61

39:                                               ; preds = %35
  store i32 0, i32* %4, align 4
  br label %40

40:                                               ; preds = %54, %39
  %41 = load i32, i32* %4, align 4
  %42 = load i32, i32* %2, align 4
  %43 = icmp slt i32 %41, %42
  br i1 %43, label %44, label %57

44:                                               ; preds = %40
  %45 = load i32**, i32*** %10, align 8
  %46 = load i32, i32* %3, align 4
  %47 = sext i32 %46 to i64
  %48 = getelementptr inbounds i32*, i32** %45, i64 %47
  %49 = load i32*, i32** %48, align 8
  %50 = load i32, i32* %4, align 4
  %51 = sext i32 %50 to i64
  %52 = getelementptr inbounds i32, i32* %49, i64 %51
  %53 = call i32 (i8*, ...) @__isoc99_scanf(i8* getelementptr inbounds ([3 x i8], [3 x i8]* @.str, i64 0, i64 0), i32* %52)
  br label %54

54:                                               ; preds = %44
  %55 = load i32, i32* %4, align 4
  %56 = add nsw i32 %55, 1
  store i32 %56, i32* %4, align 4
  br label %40

57:                                               ; preds = %40
  br label %58

58:                                               ; preds = %57
  %59 = load i32, i32* %3, align 4
  %60 = add nsw i32 %59, 1
  store i32 %60, i32* %3, align 4
  br label %35

61:                                               ; preds = %35
  store i32 0, i32* %3, align 4
  br label %62

62:                                               ; preds = %178, %61
  %63 = load i32, i32* %3, align 4
  %64 = load i32, i32* %2, align 4
  %65 = icmp slt i32 %63, %64
  br i1 %65, label %66, label %181

66:                                               ; preds = %62
  store i32 0, i32* %4, align 4
  br label %67

67:                                               ; preds = %174, %66
  %68 = load i32, i32* %4, align 4
  %69 = load i32, i32* %2, align 4
  %70 = icmp slt i32 %68, %69
  br i1 %70, label %71, label %177

71:                                               ; preds = %67
  %72 = load i32**, i32*** %10, align 8
  %73 = load i32, i32* %3, align 4
  %74 = sext i32 %73 to i64
  %75 = getelementptr inbounds i32*, i32** %72, i64 %74
  %76 = load i32*, i32** %75, align 8
  %77 = load i32, i32* %4, align 4
  %78 = sext i32 %77 to i64
  %79 = getelementptr inbounds i32, i32* %76, i64 %78
  %80 = load i32, i32* %79, align 4
  %81 = icmp eq i32 %80, 0
  br i1 %81, label %82, label %173

82:                                               ; preds = %71
  %83 = load i32**, i32*** %10, align 8
  %84 = load i32, i32* %3, align 4
  %85 = sext i32 %84 to i64
  %86 = getelementptr inbounds i32*, i32** %83, i64 %85
  %87 = load i32*, i32** %86, align 8
  %88 = load i32, i32* %4, align 4
  %89 = sext i32 %88 to i64
  %90 = getelementptr inbounds i32, i32* %87, i64 %89
  %91 = load i32, i32* %90, align 4
  %92 = load i32**, i32*** %10, align 8
  %93 = load i32, i32* %3, align 4
  %94 = sub nsw i32 %93, 1
  %95 = sext i32 %94 to i64
  %96 = getelementptr inbounds i32*, i32** %92, i64 %95
  %97 = load i32*, i32** %96, align 8
  %98 = load i32, i32* %4, align 4
  %99 = sext i32 %98 to i64
  %100 = getelementptr inbounds i32, i32* %97, i64 %99
  %101 = load i32, i32* %100, align 4
  %102 = icmp ne i32 %91, %101
  br i1 %102, label %103, label %127

103:                                              ; preds = %82
  %104 = load i32**, i32*** %10, align 8
  %105 = load i32, i32* %3, align 4
  %106 = sext i32 %105 to i64
  %107 = getelementptr inbounds i32*, i32** %104, i64 %106
  %108 = load i32*, i32** %107, align 8
  %109 = load i32, i32* %4, align 4
  %110 = sext i32 %109 to i64
  %111 = getelementptr inbounds i32, i32* %108, i64 %110
  %112 = load i32, i32* %111, align 4
  %113 = load i32**, i32*** %10, align 8
  %114 = load i32, i32* %3, align 4
  %115 = sext i32 %114 to i64
  %116 = getelementptr inbounds i32*, i32** %113, i64 %115
  %117 = load i32*, i32** %116, align 8
  %118 = load i32, i32* %4, align 4
  %119 = sub nsw i32 %118, 1
  %120 = sext i32 %119 to i64
  %121 = getelementptr inbounds i32, i32* %117, i64 %120
  %122 = load i32, i32* %121, align 4
  %123 = icmp ne i32 %112, %122
  br i1 %123, label %124, label %127

124:                                              ; preds = %103
  %125 = load i32, i32* %3, align 4
  store i32 %125, i32* %5, align 4
  %126 = load i32, i32* %4, align 4
  store i32 %126, i32* %6, align 4
  br label %177

127:                                              ; preds = %103, %82
  %128 = load i32**, i32*** %10, align 8
  %129 = load i32, i32* %3, align 4
  %130 = sext i32 %129 to i64
  %131 = getelementptr inbounds i32*, i32** %128, i64 %130
  %132 = load i32*, i32** %131, align 8
  %133 = load i32, i32* %4, align 4
  %134 = sext i32 %133 to i64
  %135 = getelementptr inbounds i32, i32* %132, i64 %134
  %136 = load i32, i32* %135, align 4
  %137 = load i32**, i32*** %10, align 8
  %138 = load i32, i32* %3, align 4
  %139 = add nsw i32 %138, 1
  %140 = sext i32 %139 to i64
  %141 = getelementptr inbounds i32*, i32** %137, i64 %140
  %142 = load i32*, i32** %141, align 8
  %143 = load i32, i32* %4, align 4
  %144 = sext i32 %143 to i64
  %145 = getelementptr inbounds i32, i32* %142, i64 %144
  %146 = load i32, i32* %145, align 4
  %147 = icmp ne i32 %136, %146
  br i1 %147, label %148, label %172

148:                                              ; preds = %127
  %149 = load i32**, i32*** %10, align 8
  %150 = load i32, i32* %3, align 4
  %151 = sext i32 %150 to i64
  %152 = getelementptr inbounds i32*, i32** %149, i64 %151
  %153 = load i32*, i32** %152, align 8
  %154 = load i32, i32* %4, align 4
  %155 = sext i32 %154 to i64
  %156 = getelementptr inbounds i32, i32* %153, i64 %155
  %157 = load i32, i32* %156, align 4
  %158 = load i32**, i32*** %10, align 8
  %159 = load i32, i32* %3, align 4
  %160 = sext i32 %159 to i64
  %161 = getelementptr inbounds i32*, i32** %158, i64 %160
  %162 = load i32*, i32** %161, align 8
  %163 = load i32, i32* %4, align 4
  %164 = add nsw i32 %163, 1
  %165 = sext i32 %164 to i64
  %166 = getelementptr inbounds i32, i32* %162, i64 %165
  %167 = load i32, i32* %166, align 4
  %168 = icmp ne i32 %157, %167
  br i1 %168, label %169, label %172

169:                                              ; preds = %148
  %170 = load i32, i32* %3, align 4
  store i32 %170, i32* %7, align 4
  %171 = load i32, i32* %4, align 4
  store i32 %171, i32* %8, align 4
  br label %177

172:                                              ; preds = %148, %127
  br label %173

173:                                              ; preds = %172, %71
  br label %174

174:                                              ; preds = %173
  %175 = load i32, i32* %4, align 4
  %176 = add nsw i32 %175, 1
  store i32 %176, i32* %4, align 4
  br label %67

177:                                              ; preds = %169, %124, %67
  br label %178

178:                                              ; preds = %177
  %179 = load i32, i32* %3, align 4
  %180 = add nsw i32 %179, 1
  store i32 %180, i32* %3, align 4
  br label %62

181:                                              ; preds = %62
  %182 = load i32, i32* %7, align 4
  %183 = load i32, i32* %5, align 4
  %184 = sub nsw i32 %182, %183
  %185 = sub nsw i32 %184, 1
  %186 = load i32, i32* %8, align 4
  %187 = load i32, i32* %6, align 4
  %188 = sub nsw i32 %186, %187
  %189 = sub nsw i32 %188, 1
  %190 = mul nsw i32 %185, %189
  store i32 %190, i32* %9, align 4
  %191 = load i32, i32* %9, align 4
  %192 = call i32 (i8*, ...) @printf(i8* getelementptr inbounds ([4 x i8], [4 x i8]* @.str.1, i64 0, i64 0), i32 %191)
  store i32 0, i32* %3, align 4
  br label %193

193:                                              ; preds = %204, %181
  %194 = load i32, i32* %3, align 4
  %195 = load i32, i32* %2, align 4
  %196 = icmp slt i32 %194, %195
  br i1 %196, label %197, label %207

197:                                              ; preds = %193
  %198 = load i32**, i32*** %10, align 8
  %199 = load i32, i32* %3, align 4
  %200 = sext i32 %199 to i64
  %201 = getelementptr inbounds i32*, i32** %198, i64 %200
  %202 = load i32*, i32** %201, align 8
  %203 = bitcast i32* %202 to i8*
  call void @free(i8* %203) #3
  br label %204

204:                                              ; preds = %197
  %205 = load i32, i32* %3, align 4
  %206 = add nsw i32 %205, 1
  store i32 %206, i32* %3, align 4
  br label %193

207:                                              ; preds = %193
  %208 = load i32**, i32*** %10, align 8
  %209 = bitcast i32** %208 to i8*
  call void @free(i8* %209) #3
  ret i32 0
}

declare dso_local i32 @__isoc99_scanf(i8*, ...) #1

; Function Attrs: nounwind
declare dso_local noalias i8* @malloc(i64) #2

declare dso_local i32 @printf(i8*, ...) #1

; Function Attrs: nounwind
declare dso_local void @free(i8*) #2


!llvm.module.flags = !{!0}
!llvm.ident = !{!1}

!0 = !{i32 1, !"wchar_size", i32 4}
!1 = !{!"clang version 10.0.0-4ubuntu1 "}
